target datalayout = "e-m:e-p270:32:32-p271:32:32-p272:64:64-i64:64-i128:128-f80:128-n8:16:32:64-S128"
target triple = "x86_64-pc-linux-gnu"

@.str = private unnamed_addr constant [4 x i8] c"sli\00", align 1
@.str.1 = private unnamed_addr constant [4 x i8] c"icc\00", align 1
@.str.2 = private unnamed_addr constant [1 x i8] zeroinitializer, align 1
@.str.3 = private unnamed_addr constant [2 x i8] c"~\00", align 1
@.str.4 = private unnamed_addr constant [2 x i8] c"&\00", align 1
@.str.5 = private unnamed_addr constant [2 x i8] c"|\00", align 1
@.str.6 = private unnamed_addr constant [2 x i8] c"^\00", align 1
@.str.7 = private unnamed_addr constant [2 x i8] c"?\00", align 1
@.str.8 = private unnamed_addr constant [4 x i8] c"maj\00", align 1
@.str.9 = private unnamed_addr constant [3 x i8] c"~&\00", align 1
@.str.10 = private unnamed_addr constant [3 x i8] c"~|\00", align 1
@.str.11 = private unnamed_addr constant [3 x i8] c"~^\00", align 1
@.str.12 = private unnamed_addr constant [2 x i8] c"!\00", align 1
@.str.13 = private unnamed_addr constant [3 x i8] c"&&\00", align 1
@.str.14 = private unnamed_addr constant [11 x i8] c"logic nand\00", align 1
@.str.15 = private unnamed_addr constant [3 x i8] c"||\00", align 1
@.str.16 = private unnamed_addr constant [10 x i8] c"logic nor\00", align 1
@.str.17 = private unnamed_addr constant [3 x i8] c"^^\00", align 1
@.str.18 = private unnamed_addr constant [11 x i8] c"logic xnor\00", align 1
@.str.19 = private unnamed_addr constant [5 x i8] c"nmux\00", align 1
@.str.20 = private unnamed_addr constant [4 x i8] c"sel\00", align 1
@.str.21 = private unnamed_addr constant [12 x i8] c"prio-select\00", align 1
@.str.22 = private unnamed_addr constant [4 x i8] c"enc\00", align 1
@.str.23 = private unnamed_addr constant [9 x i8] c"prio-enc\00", align 1
@.str.24 = private unnamed_addr constant [4 x i8] c"dec\00", align 1
@.str.25 = private unnamed_addr constant [11 x i8] c"enable-dec\00", align 1
@.str.26 = private unnamed_addr constant [2 x i8] c"+\00", align 1
@.str.27 = private unnamed_addr constant [2 x i8] c"-\00", align 1
@.str.28 = private unnamed_addr constant [2 x i8] c"*\00", align 1
@.str.29 = private unnamed_addr constant [2 x i8] c"/\00", align 1
@.str.30 = private unnamed_addr constant [2 x i8] c"%\00", align 1
@.str.31 = private unnamed_addr constant [3 x i8] c"**\00", align 1
@.str.32 = private unnamed_addr constant [2 x i8] c"@\00", align 1
@.str.33 = private unnamed_addr constant [4 x i8] c"abs\00", align 1
@.str.34 = private unnamed_addr constant [2 x i8] c"<\00", align 1
@.str.35 = private unnamed_addr constant [3 x i8] c"<=\00", align 1
@.str.36 = private unnamed_addr constant [3 x i8] c">=\00", align 1
@.str.37 = private unnamed_addr constant [2 x i8] c">\00", align 1
@.str.38 = private unnamed_addr constant [3 x i8] c"==\00", align 1
@.str.39 = private unnamed_addr constant [3 x i8] c"!=\00", align 1
@.str.40 = private unnamed_addr constant [3 x i8] c"<<\00", align 1
@.str.41 = private unnamed_addr constant [3 x i8] c">>\00", align 1
@.str.42 = private unnamed_addr constant [4 x i8] c"<<<\00", align 1
@.str.43 = private unnamed_addr constant [4 x i8] c">>>\00", align 1
@.str.44 = private unnamed_addr constant [5 x i8] c"rotL\00", align 1
@.str.45 = private unnamed_addr constant [5 x i8] c"rotR\00", align 1
@.str.46 = private unnamed_addr constant [4 x i8] c"tri\00", align 1
@.str.47 = private unnamed_addr constant [4 x i8] c"ram\00", align 1
@.str.48 = private unnamed_addr constant [5 x i8] c"ramR\00", align 1
@.str.49 = private unnamed_addr constant [5 x i8] c"ramW\00", align 1
@.str.50 = private unnamed_addr constant [6 x i8] c"ramWC\00", align 1
@.str.51 = private unnamed_addr constant [7 x i8] c"ramBox\00", align 1
@.str.52 = private unnamed_addr constant [4 x i8] c"lat\00", align 1
@.str.53 = private unnamed_addr constant [6 x i8] c"latrs\00", align 1
@.str.54 = private unnamed_addr constant [4 x i8] c"dff\00", align 1
@.str.55 = private unnamed_addr constant [6 x i8] c"dffrs\00", align 1

; Function Attrs: nounwind uwtable
define void @Cba_ManCreatePrimMap(ptr noundef %0) #0 {
  %2 = alloca ptr, align 8
  store ptr %0, ptr %2, align 8, !tbaa !3
  %3 = load ptr, ptr %2, align 8, !tbaa !3
  call void @llvm.memset.p0.i64(ptr align 8 %3, i8 0, i64 720, i1 false)
  %4 = load ptr, ptr %2, align 8, !tbaa !3
  %5 = getelementptr inbounds ptr, ptr %4, i64 88
  store ptr @.str, ptr %5, align 8, !tbaa !8
  %6 = load ptr, ptr %2, align 8, !tbaa !3
  %7 = getelementptr inbounds ptr, ptr %6, i64 89
  store ptr @.str.1, ptr %7, align 8, !tbaa !8
  %8 = load ptr, ptr %2, align 8, !tbaa !3
  %9 = getelementptr inbounds ptr, ptr %8, i64 8
  store ptr @.str.2, ptr %9, align 8, !tbaa !8
  %10 = load ptr, ptr %2, align 8, !tbaa !3
  %11 = getelementptr inbounds ptr, ptr %10, i64 9
  store ptr @.str.3, ptr %11, align 8, !tbaa !8
  %12 = load ptr, ptr %2, align 8, !tbaa !3
  %13 = getelementptr inbounds ptr, ptr %12, i64 10
  store ptr @.str.4, ptr %13, align 8, !tbaa !8
  %14 = load ptr, ptr %2, align 8, !tbaa !3
  %15 = getelementptr inbounds ptr, ptr %14, i64 11
  store ptr @.str.4, ptr %15, align 8, !tbaa !8
  %16 = load ptr, ptr %2, align 8, !tbaa !3
  %17 = getelementptr inbounds ptr, ptr %16, i64 12
  store ptr @.str.5, ptr %17, align 8, !tbaa !8
  %18 = load ptr, ptr %2, align 8, !tbaa !3
  %19 = getelementptr inbounds ptr, ptr %18, i64 13
  store ptr @.str.5, ptr %19, align 8, !tbaa !8
  %20 = load ptr, ptr %2, align 8, !tbaa !3
  %21 = getelementptr inbounds ptr, ptr %20, i64 14
  store ptr @.str.6, ptr %21, align 8, !tbaa !8
  %22 = load ptr, ptr %2, align 8, !tbaa !3
  %23 = getelementptr inbounds ptr, ptr %22, i64 15
  store ptr @.str.6, ptr %23, align 8, !tbaa !8
  %24 = load ptr, ptr %2, align 8, !tbaa !3
  %25 = getelementptr inbounds ptr, ptr %24, i64 16
  store ptr @.str.4, ptr %25, align 8, !tbaa !8
  %26 = load ptr, ptr %2, align 8, !tbaa !3
  %27 = getelementptr inbounds ptr, ptr %26, i64 17
  store ptr @.str.4, ptr %27, align 8, !tbaa !8
  %28 = load ptr, ptr %2, align 8, !tbaa !3
  %29 = getelementptr inbounds ptr, ptr %28, i64 18
  store ptr @.str.7, ptr %29, align 8, !tbaa !8
  %30 = load ptr, ptr %2, align 8, !tbaa !3
  %31 = getelementptr inbounds ptr, ptr %30, i64 19
  store ptr @.str.8, ptr %31, align 8, !tbaa !8
  %32 = load ptr, ptr %2, align 8, !tbaa !3
  %33 = getelementptr inbounds ptr, ptr %32, i64 27
  store ptr @.str.4, ptr %33, align 8, !tbaa !8
  %34 = load ptr, ptr %2, align 8, !tbaa !3
  %35 = getelementptr inbounds ptr, ptr %34, i64 28
  store ptr @.str.9, ptr %35, align 8, !tbaa !8
  %36 = load ptr, ptr %2, align 8, !tbaa !3
  %37 = getelementptr inbounds ptr, ptr %36, i64 29
  store ptr @.str.5, ptr %37, align 8, !tbaa !8
  %38 = load ptr, ptr %2, align 8, !tbaa !3
  %39 = getelementptr inbounds ptr, ptr %38, i64 30
  store ptr @.str.10, ptr %39, align 8, !tbaa !8
  %40 = load ptr, ptr %2, align 8, !tbaa !3
  %41 = getelementptr inbounds ptr, ptr %40, i64 31
  store ptr @.str.6, ptr %41, align 8, !tbaa !8
  %42 = load ptr, ptr %2, align 8, !tbaa !3
  %43 = getelementptr inbounds ptr, ptr %42, i64 32
  store ptr @.str.11, ptr %43, align 8, !tbaa !8
  %44 = load ptr, ptr %2, align 8, !tbaa !3
  %45 = getelementptr inbounds ptr, ptr %44, i64 33
  store ptr @.str.12, ptr %45, align 8, !tbaa !8
  %46 = load ptr, ptr %2, align 8, !tbaa !3
  %47 = getelementptr inbounds ptr, ptr %46, i64 34
  store ptr @.str.13, ptr %47, align 8, !tbaa !8
  %48 = load ptr, ptr %2, align 8, !tbaa !3
  %49 = getelementptr inbounds ptr, ptr %48, i64 35
  store ptr @.str.14, ptr %49, align 8, !tbaa !8
  %50 = load ptr, ptr %2, align 8, !tbaa !3
  %51 = getelementptr inbounds ptr, ptr %50, i64 36
  store ptr @.str.15, ptr %51, align 8, !tbaa !8
  %52 = load ptr, ptr %2, align 8, !tbaa !3
  %53 = getelementptr inbounds ptr, ptr %52, i64 37
  store ptr @.str.16, ptr %53, align 8, !tbaa !8
  %54 = load ptr, ptr %2, align 8, !tbaa !3
  %55 = getelementptr inbounds ptr, ptr %54, i64 38
  store ptr @.str.17, ptr %55, align 8, !tbaa !8
  %56 = load ptr, ptr %2, align 8, !tbaa !3
  %57 = getelementptr inbounds ptr, ptr %56, i64 39
  store ptr @.str.18, ptr %57, align 8, !tbaa !8
  %58 = load ptr, ptr %2, align 8, !tbaa !3
  %59 = getelementptr inbounds ptr, ptr %58, i64 40
  store ptr @.str.19, ptr %59, align 8, !tbaa !8
  %60 = load ptr, ptr %2, align 8, !tbaa !3
  %61 = getelementptr inbounds ptr, ptr %60, i64 41
  store ptr @.str.20, ptr %61, align 8, !tbaa !8
  %62 = load ptr, ptr %2, align 8, !tbaa !3
  %63 = getelementptr inbounds ptr, ptr %62, i64 42
  store ptr @.str.21, ptr %63, align 8, !tbaa !8
  %64 = load ptr, ptr %2, align 8, !tbaa !3
  %65 = getelementptr inbounds ptr, ptr %64, i64 43
  store ptr @.str.22, ptr %65, align 8, !tbaa !8
  %66 = load ptr, ptr %2, align 8, !tbaa !3
  %67 = getelementptr inbounds ptr, ptr %66, i64 44
  store ptr @.str.23, ptr %67, align 8, !tbaa !8
  %68 = load ptr, ptr %2, align 8, !tbaa !3
  %69 = getelementptr inbounds ptr, ptr %68, i64 45
  store ptr @.str.24, ptr %69, align 8, !tbaa !8
  %70 = load ptr, ptr %2, align 8, !tbaa !3
  %71 = getelementptr inbounds ptr, ptr %70, i64 46
  store ptr @.str.25, ptr %71, align 8, !tbaa !8
  %72 = load ptr, ptr %2, align 8, !tbaa !3
  %73 = getelementptr inbounds ptr, ptr %72, i64 47
  store ptr @.str.26, ptr %73, align 8, !tbaa !8
  %74 = load ptr, ptr %2, align 8, !tbaa !3
  %75 = getelementptr inbounds ptr, ptr %74, i64 48
  store ptr @.str.27, ptr %75, align 8, !tbaa !8
  %76 = load ptr, ptr %2, align 8, !tbaa !3
  %77 = getelementptr inbounds ptr, ptr %76, i64 49
  store ptr @.str.28, ptr %77, align 8, !tbaa !8
  %78 = load ptr, ptr %2, align 8, !tbaa !3
  %79 = getelementptr inbounds ptr, ptr %78, i64 51
  store ptr @.str.29, ptr %79, align 8, !tbaa !8
  %80 = load ptr, ptr %2, align 8, !tbaa !3
  %81 = getelementptr inbounds ptr, ptr %80, i64 52
  store ptr @.str.30, ptr %81, align 8, !tbaa !8
  %82 = load ptr, ptr %2, align 8, !tbaa !3
  %83 = getelementptr inbounds ptr, ptr %82, i64 53
  store ptr @.str.30, ptr %83, align 8, !tbaa !8
  %84 = load ptr, ptr %2, align 8, !tbaa !3
  %85 = getelementptr inbounds ptr, ptr %84, i64 54
  store ptr @.str.31, ptr %85, align 8, !tbaa !8
  %86 = load ptr, ptr %2, align 8, !tbaa !3
  %87 = getelementptr inbounds ptr, ptr %86, i64 55
  store ptr @.str.27, ptr %87, align 8, !tbaa !8
  %88 = load ptr, ptr %2, align 8, !tbaa !3
  %89 = getelementptr inbounds ptr, ptr %88, i64 56
  store ptr @.str.32, ptr %89, align 8, !tbaa !8
  %90 = load ptr, ptr %2, align 8, !tbaa !3
  %91 = getelementptr inbounds ptr, ptr %90, i64 57
  store ptr @.str.33, ptr %91, align 8, !tbaa !8
  %92 = load ptr, ptr %2, align 8, !tbaa !3
  %93 = getelementptr inbounds ptr, ptr %92, i64 59
  store ptr @.str.34, ptr %93, align 8, !tbaa !8
  %94 = load ptr, ptr %2, align 8, !tbaa !3
  %95 = getelementptr inbounds ptr, ptr %94, i64 60
  store ptr @.str.35, ptr %95, align 8, !tbaa !8
  %96 = load ptr, ptr %2, align 8, !tbaa !3
  %97 = getelementptr inbounds ptr, ptr %96, i64 61
  store ptr @.str.36, ptr %97, align 8, !tbaa !8
  %98 = load ptr, ptr %2, align 8, !tbaa !3
  %99 = getelementptr inbounds ptr, ptr %98, i64 62
  store ptr @.str.37, ptr %99, align 8, !tbaa !8
  %100 = load ptr, ptr %2, align 8, !tbaa !3
  %101 = getelementptr inbounds ptr, ptr %100, i64 63
  store ptr @.str.38, ptr %101, align 8, !tbaa !8
  %102 = load ptr, ptr %2, align 8, !tbaa !3
  %103 = getelementptr inbounds ptr, ptr %102, i64 64
  store ptr @.str.39, ptr %103, align 8, !tbaa !8
  %104 = load ptr, ptr %2, align 8, !tbaa !3
  %105 = getelementptr inbounds ptr, ptr %104, i64 65
  store ptr @.str.40, ptr %105, align 8, !tbaa !8
  %106 = load ptr, ptr %2, align 8, !tbaa !3
  %107 = getelementptr inbounds ptr, ptr %106, i64 66
  store ptr @.str.41, ptr %107, align 8, !tbaa !8
  %108 = load ptr, ptr %2, align 8, !tbaa !3
  %109 = getelementptr inbounds ptr, ptr %108, i64 67
  store ptr @.str.42, ptr %109, align 8, !tbaa !8
  %110 = load ptr, ptr %2, align 8, !tbaa !3
  %111 = getelementptr inbounds ptr, ptr %110, i64 68
  store ptr @.str.43, ptr %111, align 8, !tbaa !8
  %112 = load ptr, ptr %2, align 8, !tbaa !3
  %113 = getelementptr inbounds ptr, ptr %112, i64 69
  store ptr @.str.44, ptr %113, align 8, !tbaa !8
  %114 = load ptr, ptr %2, align 8, !tbaa !3
  %115 = getelementptr inbounds ptr, ptr %114, i64 70
  store ptr @.str.45, ptr %115, align 8, !tbaa !8
  %116 = load ptr, ptr %2, align 8, !tbaa !3
  %117 = getelementptr inbounds ptr, ptr %116, i64 75
  store ptr @.str.46, ptr %117, align 8, !tbaa !8
  %118 = load ptr, ptr %2, align 8, !tbaa !3
  %119 = getelementptr inbounds ptr, ptr %118, i64 76
  store ptr @.str.47, ptr %119, align 8, !tbaa !8
  %120 = load ptr, ptr %2, align 8, !tbaa !3
  %121 = getelementptr inbounds ptr, ptr %120, i64 77
  store ptr @.str.48, ptr %121, align 8, !tbaa !8
  %122 = load ptr, ptr %2, align 8, !tbaa !3
  %123 = getelementptr inbounds ptr, ptr %122, i64 78
  store ptr @.str.49, ptr %123, align 8, !tbaa !8
  %124 = load ptr, ptr %2, align 8, !tbaa !3
  %125 = getelementptr inbounds ptr, ptr %124, i64 79
  store ptr @.str.50, ptr %125, align 8, !tbaa !8
  %126 = load ptr, ptr %2, align 8, !tbaa !3
  %127 = getelementptr inbounds ptr, ptr %126, i64 82
  store ptr @.str.51, ptr %127, align 8, !tbaa !8
  %128 = load ptr, ptr %2, align 8, !tbaa !3
  %129 = getelementptr inbounds ptr, ptr %128, i64 83
  store ptr @.str.52, ptr %129, align 8, !tbaa !8
  %130 = load ptr, ptr %2, align 8, !tbaa !3
  %131 = getelementptr inbounds ptr, ptr %130, i64 84
  store ptr @.str.53, ptr %131, align 8, !tbaa !8
  %132 = load ptr, ptr %2, align 8, !tbaa !3
  %133 = getelementptr inbounds ptr, ptr %132, i64 85
  store ptr @.str.54, ptr %133, align 8, !tbaa !8
  %134 = load ptr, ptr %2, align 8, !tbaa !3
  %135 = getelementptr inbounds ptr, ptr %134, i64 87
  store ptr @.str.55, ptr %135, align 8, !tbaa !8
  ret void
}