; Function Attrs: mustprogress nofree norecurse nosync nounwind willreturn memory(argmem: write) uwtable
define void @Cba_ManCreatePrimMap(ptr noundef writeonly initializes((0, 720)) %0) local_unnamed_addr #0 {
  tail call void @llvm.memset.p0.i64(ptr noundef nonnull align 8 dereferenceable(720) %0, i8 0, i64 696, i1 false)
  %2 = getelementptr inbounds nuw i8, ptr %0, i64 704
  store ptr @.str, ptr %2, align 8, !tbaa !3
  %3 = getelementptr inbounds nuw i8, ptr %0, i64 712
  store ptr @.str.1, ptr %3, align 8, !tbaa !3
  %4 = getelementptr inbounds nuw i8, ptr %0, i64 64
  store ptr @.str.2, ptr %4, align 8, !tbaa !3
  %5 = getelementptr inbounds nuw i8, ptr %0, i64 72
  store ptr @.str.3, ptr %5, align 8, !tbaa !3
  %6 = getelementptr inbounds nuw i8, ptr %0, i64 80
  store ptr @.str.4, ptr %6, align 8, !tbaa !3
  %7 = getelementptr inbounds nuw i8, ptr %0, i64 88
  store ptr @.str.4, ptr %7, align 8, !tbaa !3
  %8 = getelementptr inbounds nuw i8, ptr %0, i64 96
  store ptr @.str.5, ptr %8, align 8, !tbaa !3
  %9 = getelementptr inbounds nuw i8, ptr %0, i64 104
  store ptr @.str.5, ptr %9, align 8, !tbaa !3
  %10 = getelementptr inbounds nuw i8, ptr %0, i64 112
  store ptr @.str.6, ptr %10, align 8, !tbaa !3
  %11 = getelementptr inbounds nuw i8, ptr %0, i64 120
  store ptr @.str.6, ptr %11, align 8, !tbaa !3
  %12 = getelementptr inbounds nuw i8, ptr %0, i64 128
  store ptr @.str.4, ptr %12, align 8, !tbaa !3
  %13 = getelementptr inbounds nuw i8, ptr %0, i64 136
  store ptr @.str.4, ptr %13, align 8, !tbaa !3
  %14 = getelementptr inbounds nuw i8, ptr %0, i64 144
  store ptr @.str.7, ptr %14, align 8, !tbaa !3
  %15 = getelementptr inbounds nuw i8, ptr %0, i64 152
  store ptr @.str.8, ptr %15, align 8, !tbaa !3
  %16 = getelementptr inbounds nuw i8, ptr %0, i64 216
  store ptr @.str.4, ptr %16, align 8, !tbaa !3
  %17 = getelementptr inbounds nuw i8, ptr %0, i64 224
  store ptr @.str.9, ptr %17, align 8, !tbaa !3
  %18 = getelementptr inbounds nuw i8, ptr %0, i64 232
  store ptr @.str.5, ptr %18, align 8, !tbaa !3
  %19 = getelementptr inbounds nuw i8, ptr %0, i64 240
  store ptr @.str.10, ptr %19, align 8, !tbaa !3
  %20 = getelementptr inbounds nuw i8, ptr %0, i64 248
  store ptr @.str.6, ptr %20, align 8, !tbaa !3
  %21 = getelementptr inbounds nuw i8, ptr %0, i64 256
  store ptr @.str.11, ptr %21, align 8, !tbaa !3
  %22 = getelementptr inbounds nuw i8, ptr %0, i64 264
  store ptr @.str.12, ptr %22, align 8, !tbaa !3
  %23 = getelementptr inbounds nuw i8, ptr %0, i64 272
  store ptr @.str.13, ptr %23, align 8, !tbaa !3
  %24 = getelementptr inbounds nuw i8, ptr %0, i64 280
  store ptr @.str.14, ptr %24, align 8, !tbaa !3
  %25 = getelementptr inbounds nuw i8, ptr %0, i64 288
  store ptr @.str.15, ptr %25, align 8, !tbaa !3
  %26 = getelementptr inbounds nuw i8, ptr %0, i64 296
  store ptr @.str.16, ptr %26, align 8, !tbaa !3
  %27 = getelementptr inbounds nuw i8, ptr %0, i64 304
  store ptr @.str.17, ptr %27, align 8, !tbaa !3
  %28 = getelementptr inbounds nuw i8, ptr %0, i64 312
  store ptr @.str.18, ptr %28, align 8, !tbaa !3
  %29 = getelementptr inbounds nuw i8, ptr %0, i64 320
  store ptr @.str.19, ptr %29, align 8, !tbaa !3
  %30 = getelementptr inbounds nuw i8, ptr %0, i64 328
  store ptr @.str.20, ptr %30, align 8, !tbaa !3
  %31 = getelementptr inbounds nuw i8, ptr %0, i64 336
  store ptr @.str.21, ptr %31, align 8, !tbaa !3
  %32 = getelementptr inbounds nuw i8, ptr %0, i64 344
  store ptr @.str.22, ptr %32, align 8, !tbaa !3
  %33 = getelementptr inbounds nuw i8, ptr %0, i64 352
  store ptr @.str.23, ptr %33, align 8, !tbaa !3
  %34 = getelementptr inbounds nuw i8, ptr %0, i64 360
  store ptr @.str.24, ptr %34, align 8, !tbaa !3
  %35 = getelementptr inbounds nuw i8, ptr %0, i64 368
  store ptr @.str.25, ptr %35, align 8, !tbaa !3
  %36 = getelementptr inbounds nuw i8, ptr %0, i64 376
  store ptr @.str.26, ptr %36, align 8, !tbaa !3
  %37 = getelementptr inbounds nuw i8, ptr %0, i64 384
  store ptr @.str.27, ptr %37, align 8, !tbaa !3
  %38 = getelementptr inbounds nuw i8, ptr %0, i64 392
  store ptr @.str.28, ptr %38, align 8, !tbaa !3
  %39 = getelementptr inbounds nuw i8, ptr %0, i64 408
  store ptr @.str.29, ptr %39, align 8, !tbaa !3
  %40 = getelementptr inbounds nuw i8, ptr %0, i64 416
  store ptr @.str.30, ptr %40, align 8, !tbaa !3
  %41 = getelementptr inbounds nuw i8, ptr %0, i64 424
  store ptr @.str.30, ptr %41, align 8, !tbaa !3
  %42 = getelementptr inbounds nuw i8, ptr %0, i64 432
  store ptr @.str.31, ptr %42, align 8, !tbaa !3
  %43 = getelementptr inbounds nuw i8, ptr %0, i64 440
  store ptr @.str.27, ptr %43, align 8, !tbaa !3
  %44 = getelementptr inbounds nuw i8, ptr %0, i64 448
  store ptr @.str.32, ptr %44, align 8, !tbaa !3
  %45 = getelementptr inbounds nuw i8, ptr %0, i64 456
  store ptr @.str.33, ptr %45, align 8, !tbaa !3
  %46 = getelementptr inbounds nuw i8, ptr %0, i64 472
  store ptr @.str.34, ptr %46, align 8, !tbaa !3
  %47 = getelementptr inbounds nuw i8, ptr %0, i64 480
  store ptr @.str.35, ptr %47, align 8, !tbaa !3
  %48 = getelementptr inbounds nuw i8, ptr %0, i64 488
  store ptr @.str.36, ptr %48, align 8, !tbaa !3
  %49 = getelementptr inbounds nuw i8, ptr %0, i64 496
  store ptr @.str.37, ptr %49, align 8, !tbaa !3
  %50 = getelementptr inbounds nuw i8, ptr %0, i64 504
  store ptr @.str.38, ptr %50, align 8, !tbaa !3
  %51 = getelementptr inbounds nuw i8, ptr %0, i64 512
  store ptr @.str.39, ptr %51, align 8, !tbaa !3
  %52 = getelementptr inbounds nuw i8, ptr %0, i64 520
  store ptr @.str.40, ptr %52, align 8, !tbaa !3
  %53 = getelementptr inbounds nuw i8, ptr %0, i64 528
  store ptr @.str.41, ptr %53, align 8, !tbaa !3
  %54 = getelementptr inbounds nuw i8, ptr %0, i64 536
  store ptr @.str.42, ptr %54, align 8, !tbaa !3
  %55 = getelementptr inbounds nuw i8, ptr %0, i64 544
  store ptr @.str.43, ptr %55, align 8, !tbaa !3
  %56 = getelementptr inbounds nuw i8, ptr %0, i64 552
  store ptr @.str.44, ptr %56, align 8, !tbaa !3
  %57 = getelementptr inbounds nuw i8, ptr %0, i64 560
  store ptr @.str.45, ptr %57, align 8, !tbaa !3
  %58 = getelementptr inbounds nuw i8, ptr %0, i64 600
  store ptr @.str.46, ptr %58, align 8, !tbaa !3
  %59 = getelementptr inbounds nuw i8, ptr %0, i64 608
  store ptr @.str.47, ptr %59, align 8, !tbaa !3
  %60 = getelementptr inbounds nuw i8, ptr %0, i64 616
  store ptr @.str.48, ptr %60, align 8, !tbaa !3
  %61 = getelementptr inbounds nuw i8, ptr %0, i64 624
  store ptr @.str.49, ptr %61, align 8, !tbaa !3
  %62 = getelementptr inbounds nuw i8, ptr %0, i64 632
  store ptr @.str.50, ptr %62, align 8, !tbaa !3
  %63 = getelementptr inbounds nuw i8, ptr %0, i64 656
  store ptr @.str.51, ptr %63, align 8, !tbaa !3
  %64 = getelementptr inbounds nuw i8, ptr %0, i64 664
  store ptr @.str.52, ptr %64, align 8, !tbaa !3
  %65 = getelementptr inbounds nuw i8, ptr %0, i64 672
  store ptr @.str.53, ptr %65, align 8, !tbaa !3
  %66 = getelementptr inbounds nuw i8, ptr %0, i64 680
  store ptr @.str.54, ptr %66, align 8, !tbaa !3
  %67 = getelementptr inbounds nuw i8, ptr %0, i64 696
  store ptr @.str.55, ptr %67, align 8, !tbaa !3
  ret void
}